target datalayout = "e-m:e-p270:32:32-p271:32:32-p272:64:64-i64:64-i128:128-f80:128-n8:16:32:64-S128"
target triple = "x86_64-pc-linux-gnu"

%struct.AVRational = type { i32, i32 }
%struct.MOVAtom = type { i32, i64 }
%struct.MOVContext = type { ptr, ptr, i32, i64, i32, i32, i32, i32, i32, i32, ptr, i32, ptr, ptr, i32, %struct.MOVFragment, ptr, i32, i32, i32, ptr, i32, i32, i32, i32, i32, i32, i32, i64, i32, i32, ptr, i32, i32, i32, i32, i32, %struct.MOVFragmentIndex, i32, i32, [20 x i8], [20 x i8], ptr, i32, ptr, i32, ptr, i32, ptr, i32, ptr, ptr, i32, i32, [3 x [3 x i32]], i32, i32, i32, i32, i32, ptr, i32, ptr, i32, i32, i64, i32 }
%struct.MOVFragment = type { i32, i32, i64, i64, i64, i32, i32, i32, i32 }
%struct.MOVFragmentIndex = type { i32, i32, i32, i32, ptr }
%struct.AVFormatContext = type { ptr, ptr, ptr, ptr, ptr, i32, i32, ptr, i32, ptr, i32, ptr, ptr, i64, i64, i64, i32, i32, i32, i64, i64, ptr, i32, i32, ptr, i32, i32, i32, i32, ptr, i64, i32, i32, %struct.AVIOInterruptCB, i32, i32, i32, i32, i64, i32, i32, i32, i32, i32, i32, i32, i32, i32, i32, i32, i32, i64, i32, i32, i32, i32, i32, ptr, ptr, ptr, ptr, i32, ptr, ptr, ptr, ptr, i32, ptr, ptr, i64, ptr, ptr, ptr, i64 }
%struct.AVIOInterruptCB = type { ptr, ptr }
%struct.AVStream = type { ptr, i32, i32, ptr, ptr, %struct.AVRational, i64, i64, i64, i32, i32, %struct.AVRational, ptr, %struct.AVRational, %struct.AVPacket, i32, %struct.AVRational, i32 }
%struct.AVPacket = type { ptr, i64, i64, ptr, i32, i32, i32, ptr, i32, i64, i64, ptr, ptr, %struct.AVRational }
%struct.AVCodecParameters = type { i32, i32, i32, ptr, i32, ptr, i32, i32, i64, i32, i32, i32, i32, i32, i32, %struct.AVRational, %struct.AVRational, i32, i32, i32, i32, i32, i32, i32, %struct.AVChannelLayout, i32, i32, i32, i32, i32, i32 }
%struct.AVChannelLayout = type { i32, i32, %union.anon, ptr }
%union.anon = type { i64 }
%struct.AVChannelCustom = type { i32, [16 x i8], ptr }

@.str.326 = private unnamed_addr constant [26 x i8] c"SA3D audio box too small\0A\00", align 1
@.str.327 = private unnamed_addr constant [33 x i8] c"Unsupported SA3D box version %d\0A\00", align 1
@.str.328 = private unnamed_addr constant [31 x i8] c"Unsupported ambisonic type %d\0A\00", align 1
@.str.329 = private unnamed_addr constant [30 x i8] c"Unsupported channel_order %d\0A\00", align 1
@.str.330 = private unnamed_addr constant [30 x i8] c"Unsupported normalization %d\0A\00", align 1
@.str.331 = private unnamed_addr constant [38 x i8] c"Invalid number of channels (%d / %d)\0A\00", align 1
@.str.332 = private unnamed_addr constant [33 x i8] c"Invalid channel index (%d / %d)\0A\00", align 1

; Function Attrs: nounwind uwtable
define internal i32 @mov_read_SA3D(ptr noundef %0, ptr noundef %1, i32 %2, i64 %3) #0 {
  %5 = alloca i32, align 4
  %6 = alloca %struct.MOVAtom, align 8
  %7 = alloca ptr, align 8
  %8 = alloca ptr, align 8
  %9 = alloca ptr, align 8
  %10 = alloca %struct.AVChannelLayout, align 8
  %11 = alloca i32, align 4
  %12 = alloca i32, align 4
  %13 = alloca i32, align 4
  %14 = alloca i32, align 4
  %15 = alloca i32, align 4
  %16 = alloca i32, align 4
  %17 = alloca i32, align 4
  %18 = alloca i32, align 4
  %19 = alloca i32, align 4
  %20 = alloca i32, align 4
  %21 = alloca i32, align 4
  %22 = alloca i32, align 4
  %23 = getelementptr inbounds nuw { i32, i64 }, ptr %6, i32 0, i32 0
  store i32 %2, ptr %23, align 8
  %24 = getelementptr inbounds nuw { i32, i64 }, ptr %6, i32 0, i32 1
  store i64 %3, ptr %24, align 8
  store ptr %0, ptr %7, align 8, !tbaa !4
  store ptr %1, ptr %8, align 8, !tbaa !9
  call void @llvm.lifetime.start.p0(i64 8, ptr %9) #14
  call void @llvm.lifetime.start.p0(i64 24, ptr %10) #14
  call void @llvm.memset.p0.i64(ptr align 8 %10, i8 0, i64 24, i1 false)
  call void @llvm.lifetime.start.p0(i64 4, ptr %11) #14
  call void @llvm.lifetime.start.p0(i64 4, ptr %12) #14
  call void @llvm.lifetime.start.p0(i64 4, ptr %13) #14
  call void @llvm.lifetime.start.p0(i64 4, ptr %14) #14
  call void @llvm.lifetime.start.p0(i64 4, ptr %15) #14
  call void @llvm.lifetime.start.p0(i64 4, ptr %16) #14
  call void @llvm.lifetime.start.p0(i64 4, ptr %17) #14
  call void @llvm.lifetime.start.p0(i64 4, ptr %18) #14
  call void @llvm.lifetime.start.p0(i64 4, ptr %19) #14
  call void @llvm.lifetime.start.p0(i64 4, ptr %20) #14
  %25 = load ptr, ptr %7, align 8, !tbaa !4
  %26 = getelementptr inbounds nuw %struct.MOVContext, ptr %25, i32 0, i32 1
  %27 = load ptr, ptr %26, align 8, !tbaa !13
  %28 = getelementptr inbounds nuw %struct.AVFormatContext, ptr %27, i32 0, i32 6
  %29 = load i32, ptr %28, align 4, !tbaa !30
  %30 = icmp ult i32 %29, 1
  br i1 %30, label %31, label %32

31:                                               ; preds = %4
  store i32 0, ptr %5, align 4
  store i32 1, ptr %21, align 4
  br label %199

32:                                               ; preds = %4
  %33 = load ptr, ptr %7, align 8, !tbaa !4
  %34 = getelementptr inbounds nuw %struct.MOVContext, ptr %33, i32 0, i32 1
  %35 = load ptr, ptr %34, align 8, !tbaa !13
  %36 = getelementptr inbounds nuw %struct.AVFormatContext, ptr %35, i32 0, i32 7
  %37 = load ptr, ptr %36, align 8, !tbaa !41
  %38 = load ptr, ptr %7, align 8, !tbaa !4
  %39 = getelementptr inbounds nuw %struct.MOVContext, ptr %38, i32 0, i32 1
  %40 = load ptr, ptr %39, align 8, !tbaa !13
  %41 = getelementptr inbounds nuw %struct.AVFormatContext, ptr %40, i32 0, i32 6
  %42 = load i32, ptr %41, align 4, !tbaa !30
  %43 = sub i32 %42, 1
  %44 = zext i32 %43 to i64
  %45 = getelementptr inbounds nuw ptr, ptr %37, i64 %44
  %46 = load ptr, ptr %45, align 8, !tbaa !42
  store ptr %46, ptr %9, align 8, !tbaa !42
  %47 = getelementptr inbounds nuw %struct.MOVAtom, ptr %6, i32 0, i32 1
  %48 = load i64, ptr %47, align 8, !tbaa !58
  %49 = icmp slt i64 %48, 16
  br i1 %49, label %50, label %54

50:                                               ; preds = %32
  %51 = load ptr, ptr %7, align 8, !tbaa !4
  %52 = getelementptr inbounds nuw %struct.MOVContext, ptr %51, i32 0, i32 1
  %53 = load ptr, ptr %52, align 8, !tbaa !13
  call void (ptr, i32, ptr, ...) @av_log(ptr noundef %53, i32 noundef 16, ptr noundef @.str.326)
  store i32 -1094995529, ptr %5, align 4
  store i32 1, ptr %21, align 4
  br label %199

54:                                               ; preds = %32
  %55 = load ptr, ptr %8, align 8, !tbaa !9
  %56 = call i32 @avio_r8(ptr noundef %55)
  store i32 %56, ptr %13, align 4, !tbaa !11
  %57 = load i32, ptr %13, align 4, !tbaa !11
  %58 = icmp ne i32 %57, 0
  br i1 %58, label %59, label %64

59:                                               ; preds = %54
  %60 = load ptr, ptr %7, align 8, !tbaa !4
  %61 = getelementptr inbounds nuw %struct.MOVContext, ptr %60, i32 0, i32 1
  %62 = load ptr, ptr %61, align 8, !tbaa !13
  %63 = load i32, ptr %13, align 4, !tbaa !11
  call void (ptr, i32, ptr, ...) @av_log(ptr noundef %62, i32 noundef 24, ptr noundef @.str.327, i32 noundef %63)
  store i32 0, ptr %5, align 4
  store i32 1, ptr %21, align 4
  br label %199

64:                                               ; preds = %54
  %65 = load ptr, ptr %8, align 8, !tbaa !9
  %66 = call i32 @avio_r8(ptr noundef %65)
  store i32 %66, ptr %14, align 4, !tbaa !11
  %67 = load i32, ptr %14, align 4, !tbaa !11
  %68 = and i32 %67, 127
  %69 = icmp ne i32 %68, 0
  br i1 %69, label %70, label %76

70:                                               ; preds = %64
  %71 = load ptr, ptr %7, align 8, !tbaa !4
  %72 = getelementptr inbounds nuw %struct.MOVContext, ptr %71, i32 0, i32 1
  %73 = load ptr, ptr %72, align 8, !tbaa !13
  %74 = load i32, ptr %14, align 4, !tbaa !11
  %75 = and i32 %74, 127
  call void (ptr, i32, ptr, ...) @av_log(ptr noundef %73, i32 noundef 24, ptr noundef @.str.328, i32 noundef %75)
  store i32 0, ptr %5, align 4
  store i32 1, ptr %21, align 4
  br label %199

76:                                               ; preds = %64
  %77 = load i32, ptr %14, align 4, !tbaa !11
  %78 = ashr i32 %77, 7
  %79 = mul nsw i32 %78, 2
  store i32 %79, ptr %20, align 4, !tbaa !11
  %80 = load ptr, ptr %8, align 8, !tbaa !9
  %81 = call i32 @avio_rb32(ptr noundef %80)
  store i32 %81, ptr %15, align 4, !tbaa !11
  %82 = load ptr, ptr %8, align 8, !tbaa !9
  %83 = call i32 @avio_r8(ptr noundef %82)
  store i32 %83, ptr %16, align 4, !tbaa !11
  %84 = load i32, ptr %16, align 4, !tbaa !11
  %85 = icmp ne i32 %84, 0
  br i1 %85, label %86, label %91

86:                                               ; preds = %76
  %87 = load ptr, ptr %7, align 8, !tbaa !4
  %88 = getelementptr inbounds nuw %struct.MOVContext, ptr %87, i32 0, i32 1
  %89 = load ptr, ptr %88, align 8, !tbaa !13
  %90 = load i32, ptr %16, align 4, !tbaa !11
  call void (ptr, i32, ptr, ...) @av_log(ptr noundef %89, i32 noundef 24, ptr noundef @.str.329, i32 noundef %90)
  store i32 0, ptr %5, align 4
  store i32 1, ptr %21, align 4
  br label %199

91:                                               ; preds = %76
  %92 = load ptr, ptr %8, align 8, !tbaa !9
  %93 = call i32 @avio_r8(ptr noundef %92)
  store i32 %93, ptr %17, align 4, !tbaa !11
  %94 = load i32, ptr %17, align 4, !tbaa !11
  %95 = icmp ne i32 %94, 0
  br i1 %95, label %96, label %101

96:                                               ; preds = %91
  %97 = load ptr, ptr %7, align 8, !tbaa !4
  %98 = getelementptr inbounds nuw %struct.MOVContext, ptr %97, i32 0, i32 1
  %99 = load ptr, ptr %98, align 8, !tbaa !13
  %100 = load i32, ptr %17, align 4, !tbaa !11
  call void (ptr, i32, ptr, ...) @av_log(ptr noundef %99, i32 noundef 24, ptr noundef @.str.330, i32 noundef %100)
  store i32 0, ptr %5, align 4
  store i32 1, ptr %21, align 4
  br label %199

101:                                              ; preds = %91
  %102 = load ptr, ptr %8, align 8, !tbaa !9
  %103 = call i32 @avio_rb32(ptr noundef %102)
  store i32 %103, ptr %18, align 4, !tbaa !11
  %104 = load i32, ptr %15, align 4, !tbaa !11
  %105 = icmp slt i32 %104, 0
  br i1 %105, label %123, label %106

106:                                              ; preds = %101
  %107 = load i32, ptr %15, align 4, !tbaa !11
  %108 = icmp sgt i32 %107, 31
  br i1 %108, label %123, label %109

109:                                              ; preds = %106
  %110 = load i32, ptr %18, align 4, !tbaa !11
  %111 = sext i32 %110 to i64
  %112 = load i32, ptr %15, align 4, !tbaa !11
  %113 = sext i32 %112 to i64
  %114 = add nsw i64 %113, 1
  %115 = load i32, ptr %15, align 4, !tbaa !11
  %116 = sext i32 %115 to i64
  %117 = add nsw i64 %116, 1
  %118 = mul nsw i64 %114, %117
  %119 = load i32, ptr %20, align 4, !tbaa !11
  %120 = sext i32 %119 to i64
  %121 = add nsw i64 %118, %120
  %122 = icmp ne i64 %111, %121
  br i1 %122, label %123, label %129

123:                                              ; preds = %109, %106, %101
  %124 = load ptr, ptr %7, align 8, !tbaa !4
  %125 = getelementptr inbounds nuw %struct.MOVContext, ptr %124, i32 0, i32 1
  %126 = load ptr, ptr %125, align 8, !tbaa !13
  %127 = load i32, ptr %18, align 4, !tbaa !11
  %128 = load i32, ptr %15, align 4, !tbaa !11
  call void (ptr, i32, ptr, ...) @av_log(ptr noundef %126, i32 noundef 16, ptr noundef @.str.331, i32 noundef %127, i32 noundef %128)
  store i32 0, ptr %5, align 4
  store i32 1, ptr %21, align 4
  br label %199

129:                                              ; preds = %109
  %130 = load i32, ptr %18, align 4, !tbaa !11
  %131 = load i32, ptr %20, align 4, !tbaa !11
  %132 = sub nsw i32 %130, %131
  store i32 %132, ptr %19, align 4, !tbaa !11
  %133 = load i32, ptr %18, align 4, !tbaa !11
  %134 = call i32 @av_channel_layout_custom_init(ptr noundef %10, i32 noundef %133)
  store i32 %134, ptr %11, align 4, !tbaa !11
  %135 = load i32, ptr %11, align 4, !tbaa !11
  %136 = icmp slt i32 %135, 0
  br i1 %136, label %137, label %138

137:                                              ; preds = %129
  store i32 0, ptr %5, align 4
  store i32 1, ptr %21, align 4
  br label %199

138:                                              ; preds = %129
  store i32 0, ptr %12, align 4, !tbaa !11
  br label %139

139:                                              ; preds = %182, %138
  %140 = load i32, ptr %12, align 4, !tbaa !11
  %141 = load i32, ptr %18, align 4, !tbaa !11
  %142 = icmp slt i32 %140, %141
  br i1 %142, label %143, label %185

143:                                              ; preds = %139
  call void @llvm.lifetime.start.p0(i64 4, ptr %22) #14
  %144 = load ptr, ptr %8, align 8, !tbaa !9
  %145 = call i32 @avio_rb32(ptr noundef %144)
  store i32 %145, ptr %22, align 4, !tbaa !11
  %146 = load i32, ptr %22, align 4, !tbaa !11
  %147 = load i32, ptr %18, align 4, !tbaa !11
  %148 = icmp uge i32 %146, %147
  br i1 %148, label %149, label %155

149:                                              ; preds = %143
  %150 = load ptr, ptr %7, align 8, !tbaa !4
  %151 = getelementptr inbounds nuw %struct.MOVContext, ptr %150, i32 0, i32 1
  %152 = load ptr, ptr %151, align 8, !tbaa !13
  %153 = load i32, ptr %22, align 4, !tbaa !11
  %154 = load i32, ptr %15, align 4, !tbaa !11
  call void (ptr, i32, ptr, ...) @av_log(ptr noundef %152, i32 noundef 16, ptr noundef @.str.332, i32 noundef %153, i32 noundef %154)
  call void @av_channel_layout_uninit(ptr noundef %10)
  store i32 0, ptr %5, align 4
  store i32 1, ptr %21, align 4
  br label %179

155:                                              ; preds = %143
  %156 = load i32, ptr %22, align 4, !tbaa !11
  %157 = load i32, ptr %19, align 4, !tbaa !11
  %158 = icmp uge i32 %156, %157
  br i1 %158, label %159, label %169

159:                                              ; preds = %155
  %160 = load i32, ptr %22, align 4, !tbaa !11
  %161 = load i32, ptr %19, align 4, !tbaa !11
  %162 = sub i32 %160, %161
  %163 = getelementptr inbounds nuw %struct.AVChannelLayout, ptr %10, i32 0, i32 2
  %164 = load ptr, ptr %163, align 8, !tbaa !55
  %165 = load i32, ptr %12, align 4, !tbaa !11
  %166 = sext i32 %165 to i64
  %167 = getelementptr inbounds %struct.AVChannelCustom, ptr %164, i64 %166
  %168 = getelementptr inbounds nuw %struct.AVChannelCustom, ptr %167, i32 0, i32 0
  store i32 %162, ptr %168, align 8, !tbaa !565
  br label %178

169:                                              ; preds = %155
  %170 = load i32, ptr %22, align 4, !tbaa !11
  %171 = add i32 1024, %170
  %172 = getelementptr inbounds nuw %struct.AVChannelLayout, ptr %10, i32 0, i32 2
  %173 = load ptr, ptr %172, align 8, !tbaa !55
  %174 = load i32, ptr %12, align 4, !tbaa !11
  %175 = sext i32 %174 to i64
  %176 = getelementptr inbounds %struct.AVChannelCustom, ptr %173, i64 %175
  %177 = getelementptr inbounds nuw %struct.AVChannelCustom, ptr %176, i32 0, i32 0
  store i32 %171, ptr %177, align 8, !tbaa !565
  br label %178

178:                                              ; preds = %169, %159
  store i32 0, ptr %21, align 4
  br label %179

179:                                              ; preds = %178, %149
  call void @llvm.lifetime.end.p0(i64 4, ptr %22) #14
  %180 = load i32, ptr %21, align 4
  switch i32 %180, label %199 [
    i32 0, label %181
  ]

181:                                              ; preds = %179
  br label %182

182:                                              ; preds = %181
  %183 = load i32, ptr %12, align 4, !tbaa !11
  %184 = add nsw i32 %183, 1
  store i32 %184, ptr %12, align 4, !tbaa !11
  br label %139, !llvm.loop !567

185:                                              ; preds = %139
  %186 = call i32 @av_channel_layout_retype(ptr noundef %10, i32 noundef 0, i32 noundef 2)
  store i32 %186, ptr %11, align 4, !tbaa !11
  %187 = load i32, ptr %11, align 4, !tbaa !11
  %188 = icmp slt i32 %187, 0
  br i1 %188, label %189, label %190

189:                                              ; preds = %185
  call void @av_channel_layout_uninit(ptr noundef %10)
  store i32 0, ptr %5, align 4
  store i32 1, ptr %21, align 4
  br label %199

190:                                              ; preds = %185
  %191 = load ptr, ptr %9, align 8, !tbaa !42
  %192 = getelementptr inbounds nuw %struct.AVStream, ptr %191, i32 0, i32 3
  %193 = load ptr, ptr %192, align 8, !tbaa !60
  %194 = getelementptr inbounds nuw %struct.AVCodecParameters, ptr %193, i32 0, i32 24
  call void @av_channel_layout_uninit(ptr noundef %194)
  %195 = load ptr, ptr %9, align 8, !tbaa !42
  %196 = getelementptr inbounds nuw %struct.AVStream, ptr %195, i32 0, i32 3
  %197 = load ptr, ptr %196, align 8, !tbaa !60
  %198 = getelementptr inbounds nuw %struct.AVCodecParameters, ptr %197, i32 0, i32 24
  call void @llvm.memcpy.p0.p0.i64(ptr align 8 %198, ptr align 8 %10, i64 24, i1 false), !tbaa.struct !568
  store i32 0, ptr %5, align 4
  store i32 1, ptr %21, align 4
  br label %199

199:                                              ; preds = %190, %189, %179, %137, %123, %96, %86, %70, %59, %50, %31
  call void @llvm.lifetime.end.p0(i64 4, ptr %20) #14
  call void @llvm.lifetime.end.p0(i64 4, ptr %19) #14
  call void @llvm.lifetime.end.p0(i64 4, ptr %18) #14
  call void @llvm.lifetime.end.p0(i64 4, ptr %17) #14
  call void @llvm.lifetime.end.p0(i64 4, ptr %16) #14
  call void @llvm.lifetime.end.p0(i64 4, ptr %15) #14
  call void @llvm.lifetime.end.p0(i64 4, ptr %14) #14
  call void @llvm.lifetime.end.p0(i64 4, ptr %13) #14
  call void @llvm.lifetime.end.p0(i64 4, ptr %12) #14
  call void @llvm.lifetime.end.p0(i64 4, ptr %11) #14
  call void @llvm.lifetime.end.p0(i64 24, ptr %10) #14
  call void @llvm.lifetime.end.p0(i64 8, ptr %9) #14
  %200 = load i32, ptr %5, align 4
  ret i32 %200
}