; Function Attrs: nounwind uwtable
define internal range(i32 -1094995529, 1) i32 @mov_read_SA3D(ptr noundef readonly captures(none) %0, ptr noundef %1, i32 %2, i64 %3) #0 {
  %5 = alloca %struct.AVChannelLayout, align 8
  call void @llvm.lifetime.start.p0(i64 24, ptr nonnull %5) #16
  call void @llvm.memset.p0.i64(ptr noundef nonnull align 8 dereferenceable(24) %5, i8 0, i64 24, i1 false)
  %6 = getelementptr inbounds nuw i8, ptr %0, i64 8
  %7 = load ptr, ptr %6, align 8, !tbaa !4
  %8 = getelementptr inbounds nuw i8, ptr %7, i64 44
  %9 = load i32, ptr %8, align 4, !tbaa !25
  %10 = icmp eq i32 %9, 0
  br i1 %10, label %72, label %11

11:                                               ; preds = %4
  %12 = getelementptr inbounds nuw i8, ptr %7, i64 48
  %13 = load ptr, ptr %12, align 8, !tbaa !37
  %14 = add i32 %9, -1
  %15 = zext i32 %14 to i64
  %16 = getelementptr inbounds nuw ptr, ptr %13, i64 %15
  %17 = load ptr, ptr %16, align 8, !tbaa !38
  %18 = icmp slt i64 %3, 16
  br i1 %18, label %19, label %20

19:                                               ; preds = %11
  tail call void (ptr, i32, ptr, ...) @av_log(ptr noundef nonnull %7, i32 noundef 16, ptr noundef nonnull @.str.326) #16
  br label %72

20:                                               ; preds = %11
  %21 = tail call i32 @avio_r8(ptr noundef %1) #16
  %.not = icmp eq i32 %21, 0
  br i1 %.not, label %24, label %22

22:                                               ; preds = %20
  %23 = load ptr, ptr %6, align 8, !tbaa !4
  tail call void (ptr, i32, ptr, ...) @av_log(ptr noundef %23, i32 noundef 24, ptr noundef nonnull @.str.327, i32 noundef %21) #16
  br label %72

24:                                               ; preds = %20
  %25 = tail call i32 @avio_r8(ptr noundef %1) #16
  %26 = and i32 %25, 127
  %.not69 = icmp eq i32 %26, 0
  br i1 %.not69, label %29, label %27

27:                                               ; preds = %24
  %28 = load ptr, ptr %6, align 8, !tbaa !4
  tail call void (ptr, i32, ptr, ...) @av_log(ptr noundef %28, i32 noundef 24, ptr noundef nonnull @.str.328, i32 noundef %26) #16
  br label %72

29:                                               ; preds = %24
  %30 = ashr exact i32 %25, 6
  %31 = tail call i32 @avio_rb32(ptr noundef %1) #16
  %32 = tail call i32 @avio_r8(ptr noundef %1) #16
  %.not70 = icmp eq i32 %32, 0
  br i1 %.not70, label %35, label %33

33:                                               ; preds = %29
  %34 = load ptr, ptr %6, align 8, !tbaa !4
  tail call void (ptr, i32, ptr, ...) @av_log(ptr noundef %34, i32 noundef 24, ptr noundef nonnull @.str.329, i32 noundef %32) #16
  br label %72

35:                                               ; preds = %29
  %36 = tail call i32 @avio_r8(ptr noundef %1) #16
  %.not71 = icmp eq i32 %36, 0
  br i1 %.not71, label %39, label %37

37:                                               ; preds = %35
  %38 = load ptr, ptr %6, align 8, !tbaa !4
  tail call void (ptr, i32, ptr, ...) @av_log(ptr noundef %38, i32 noundef 24, ptr noundef nonnull @.str.330, i32 noundef %36) #16
  br label %72

39:                                               ; preds = %35
  %40 = tail call i32 @avio_rb32(ptr noundef %1) #16
  %or.cond = icmp ugt i32 %31, 31
  br i1 %or.cond, label %47, label %41

41:                                               ; preds = %39
  %42 = sext i32 %40 to i64
  %narrow = add nuw nsw i32 %31, 1
  %43 = zext nneg i32 %narrow to i64
  %44 = mul nuw nsw i64 %43, %43
  %45 = sext i32 %30 to i64
  %46 = add nsw i64 %44, %45
  %.not72 = icmp eq i64 %46, %42
  br i1 %.not72, label %49, label %47

47:                                               ; preds = %41, %39
  %48 = load ptr, ptr %6, align 8, !tbaa !4
  tail call void (ptr, i32, ptr, ...) @av_log(ptr noundef %48, i32 noundef 16, ptr noundef nonnull @.str.331, i32 noundef %40, i32 noundef %31) #16
  br label %72

49:                                               ; preds = %41
  %50 = sub nsw i32 %40, %30
  %51 = call i32 @av_channel_layout_custom_init(ptr noundef nonnull %5, i32 noundef %40) #16
  %52 = icmp slt i32 %51, 0
  br i1 %52, label %72, label %.preheader

.preheader:                                       ; preds = %49
  %53 = icmp sgt i32 %40, 0
  br i1 %53, label %.lr.ph, label %._crit_edge

.lr.ph:                                           ; preds = %.preheader
  %54 = getelementptr inbounds nuw i8, ptr %5, i64 8
  %wide.trip.count = zext nneg i32 %40 to i64
  %55 = sub i32 0, %50
  br label %56

56:                                               ; preds = %.lr.ph, %58
  %indvars.iv = phi i64 [ 0, %.lr.ph ], [ %indvars.iv.next, %58 ]
  %57 = call i32 @avio_rb32(ptr noundef %1) #16
  %.not73 = icmp ult i32 %57, %40
  br i1 %.not73, label %58, label %61

58:                                               ; preds = %56
  %.not74 = icmp ult i32 %57, %50
  %59 = load ptr, ptr %54, align 8, !tbaa !82
  %60 = getelementptr inbounds nuw %struct.AVChannelCustom, ptr %59, i64 %indvars.iv
  %.sink.p = select i1 %.not74, i32 1024, i32 %55
  %.sink = add i32 %57, %.sink.p
  store i32 %.sink, ptr %60, align 8, !tbaa !633
  %indvars.iv.next = add nuw nsw i64 %indvars.iv, 1
  %exitcond.not = icmp eq i64 %indvars.iv.next, %wide.trip.count
  br i1 %exitcond.not, label %._crit_edge, label %56, !llvm.loop !635

61:                                               ; preds = %56
  %62 = load ptr, ptr %6, align 8, !tbaa !4
  call void (ptr, i32, ptr, ...) @av_log(ptr noundef %62, i32 noundef 16, ptr noundef nonnull @.str.332, i32 noundef %57, i32 noundef %31) #16
  call void @av_channel_layout_uninit(ptr noundef nonnull %5) #16
  br label %72

._crit_edge:                                      ; preds = %58, %.preheader
  %63 = call i32 @av_channel_layout_retype(ptr noundef nonnull %5, i32 noundef 0, i32 noundef 2) #16
  %64 = icmp slt i32 %63, 0
  br i1 %64, label %65, label %66

65:                                               ; preds = %._crit_edge
  call void @av_channel_layout_uninit(ptr noundef nonnull %5) #16
  br label %72

66:                                               ; preds = %._crit_edge
  %67 = getelementptr inbounds nuw i8, ptr %17, i64 16
  %68 = load ptr, ptr %67, align 8, !tbaa !49
  %69 = getelementptr inbounds nuw i8, ptr %68, i64 128
  call void @av_channel_layout_uninit(ptr noundef nonnull %69) #16
  %70 = load ptr, ptr %67, align 8, !tbaa !49
  %71 = getelementptr inbounds nuw i8, ptr %70, i64 128
  call void @llvm.memcpy.p0.p0.i64(ptr noundef nonnull align 8 dereferenceable(24) %71, ptr noundef nonnull align 8 dereferenceable(24) %5, i64 24, i1 false), !tbaa.struct !636
  br label %72

72:                                               ; preds = %61, %49, %4, %66, %65, %47, %37, %33, %27, %22, %19
  %.0 = phi i32 [ -1094995529, %19 ], [ 0, %22 ], [ 0, %27 ], [ 0, %33 ], [ 0, %37 ], [ 0, %47 ], [ 0, %61 ], [ 0, %65 ], [ 0, %66 ], [ 0, %4 ], [ 0, %49 ]
  call void @llvm.lifetime.end.p0(i64 24, ptr nonnull %5) #16
  ret i32 %.0
}